; Function Attrs: nounwind uwtable
define range(i32 -1, 2) i32 @H5Z_filter_avail(i32 noundef %0) local_unnamed_addr #0 {
  %2 = alloca %union.H5PL_key_t, align 8
  %3 = load i64, ptr @H5Z_table_used_g, align 8
  %.not12 = icmp eq i64 %3, 0
  br i1 %.not12, label %._crit_edge, label %.lr.ph

.lr.ph:                                           ; preds = %1
  %4 = load ptr, ptr @H5Z_table_g, align 8
  br label %7

5:                                                ; preds = %7
  %6 = add nuw i64 %.0711, 1
  %exitcond.not = icmp eq i64 %6, %3
  br i1 %exitcond.not, label %._crit_edge, label %7

7:                                                ; preds = %.lr.ph, %5
  %.0711 = phi i64 [ 0, %.lr.ph ], [ %6, %5 ]
  %8 = getelementptr inbounds %struct.H5Z_class2_t, ptr %4, i64 %.0711, i32 1
  %9 = load i32, ptr %8, align 4
  %10 = icmp eq i32 %9, %0
  br i1 %10, label %H5Z_register.exit.thread, label %5

._crit_edge:                                      ; preds = %5, %1
  store i32 %0, ptr %2, align 8
  %11 = call ptr @H5PL_load(i32 noundef 0, ptr noundef nonnull %2) #9
  %.not = icmp eq ptr %11, null
  br i1 %.not, label %H5Z_register.exit.thread, label %12

12:                                               ; preds = %._crit_edge
  %13 = load i64, ptr @H5Z_table_used_g, align 8
  %.not.i = icmp eq i64 %13, 0
  %.pre24.pre.i = load ptr, ptr @H5Z_table_g, align 8
  br i1 %.not.i, label %._crit_edge.i, label %.lr.ph.i

.lr.ph.i:                                         ; preds = %12
  %14 = getelementptr inbounds i8, ptr %11, i64 4
  %15 = load i32, ptr %14, align 4
  br label %16

16:                                               ; preds = %20, %.lr.ph.i
  %.022.i = phi i64 [ 0, %.lr.ph.i ], [ %21, %20 ]
  %17 = getelementptr inbounds %struct.H5Z_class2_t, ptr %.pre24.pre.i, i64 %.022.i, i32 1
  %18 = load i32, ptr %17, align 4
  %19 = icmp eq i32 %18, %15
  br i1 %19, label %34, label %20

20:                                               ; preds = %16
  %21 = add nuw i64 %.022.i, 1
  %exitcond.not.i = icmp eq i64 %21, %13
  br i1 %exitcond.not.i, label %._crit_edge.i, label %16

._crit_edge.i:                                    ; preds = %20, %12
  %22 = load i64, ptr @H5Z_table_alloc_g, align 8
  %.not18.i = icmp ult i64 %13, %22
  br i1 %.not18.i, label %29, label %23

23:                                               ; preds = %._crit_edge.i
  %24 = shl i64 %22, 1
  %25 = call i64 @llvm.umax.i64(i64 %24, i64 32)
  %26 = mul i64 %25, 48
  %27 = call ptr @H5MM_realloc(ptr noundef %.pre24.pre.i, i64 noundef %26) #9
  %.not19.i = icmp eq ptr %27, null
  br i1 %.not19.i, label %36, label %28

28:                                               ; preds = %23
  store ptr %27, ptr @H5Z_table_g, align 8
  store i64 %25, ptr @H5Z_table_alloc_g, align 8
  %.pre.i = load i64, ptr @H5Z_table_used_g, align 8
  br label %29

29:                                               ; preds = %28, %._crit_edge.i
  %30 = phi ptr [ %27, %28 ], [ %.pre24.pre.i, %._crit_edge.i ]
  %31 = phi i64 [ %.pre.i, %28 ], [ %13, %._crit_edge.i ]
  %32 = add i64 %31, 1
  store i64 %32, ptr @H5Z_table_used_g, align 8
  %33 = getelementptr inbounds %struct.H5Z_class2_t, ptr %30, i64 %31
  call void @llvm.memcpy.p0.p0.i64(ptr noundef nonnull align 8 dereferenceable(48) %33, ptr noundef nonnull readonly align 8 dereferenceable(48) %11, i64 48, i1 false)
  br label %H5Z_register.exit.thread

34:                                               ; preds = %16
  %35 = getelementptr inbounds %struct.H5Z_class2_t, ptr %.pre24.pre.i, i64 %.022.i
  call void @llvm.memcpy.p0.p0.i64(ptr noundef nonnull align 8 dereferenceable(48) %35, ptr noundef nonnull readonly align 8 dereferenceable(48) %11, i64 48, i1 false)
  br label %H5Z_register.exit.thread

36:                                               ; preds = %23
  %37 = load i64, ptr @H5E_RESOURCE_g, align 8
  %38 = load i64, ptr @H5E_NOSPACE_g, align 8
  %39 = call i32 (ptr, ptr, i32, i64, i64, ptr, ...) @H5E_printf_stack(ptr noundef nonnull @.str, ptr noundef nonnull @__func__.H5Z_register, i32 noundef 318, i64 noundef %37, i64 noundef %38, ptr noundef nonnull @.str.13) #9
  %40 = load i64, ptr @H5E_PLINE_g, align 8
  %41 = load i64, ptr @H5E_CANTINIT_g, align 8
  %42 = call i32 (ptr, ptr, i32, i64, i64, ptr, ...) @H5E_printf_stack(ptr noundef nonnull @.str, ptr noundef nonnull @__func__.H5Z_filter_avail, i32 noundef 745, i64 noundef %40, i64 noundef %41, ptr noundef nonnull @.str.20) #9
  br label %H5Z_register.exit.thread

H5Z_register.exit.thread:                         ; preds = %7, %34, %29, %._crit_edge, %36
  %.0 = phi i32 [ -1, %36 ], [ 0, %._crit_edge ], [ 1, %29 ], [ 1, %34 ], [ 1, %7 ]
  ret i32 %.0
}